target datalayout = "e-m:e-p270:32:32-p271:32:32-p272:64:64-i64:64-i128:128-f80:128-n8:16:32:64-S128"
target triple = "x86_64-pc-linux-gnu"

%struct.cli_shell_callbacks_t = type { ptr, ptr, ptr }
%struct._zend_array = type { %struct._zend_refcounted_h, %union.anon.0, i32, %union.anon.1, i32, i32, i32, i32, i64, ptr }
%struct._zend_refcounted_h = type { i32, %union.anon }
%union.anon = type { i32 }
%union.anon.0 = type { i32 }
%union.anon.1 = type { ptr }
%struct._zend_stack = type { i32, i32, i32, ptr }
%struct._zend_executor_globals = type { %struct._zval_struct, %struct._zval_struct, [32 x ptr], ptr, ptr, %struct._zend_array, %struct._zend_array, ptr, i32, i32, ptr, ptr, ptr, ptr, ptr, ptr, i64, ptr, ptr, i32, i32, i64, i32, i32, i32, i8, i8, %struct.zend_atomic_bool_s, %struct.zend_atomic_bool_s, ptr, i64, ptr, ptr, %struct._zend_array, %struct._zend_array, i32, i8, %struct._zval_struct, %struct._zval_struct, %struct._zend_stack, %struct._zend_stack, %struct._zend_stack, ptr, i32, i32, i64, ptr, ptr, ptr, %struct._zend_objects_store, ptr, ptr, ptr, [3 x %struct._zend_op], ptr, i8, i8, i64, i32, i32, ptr, [16 x %struct._HashTableIterator], ptr, %union._zend_function, %struct._zend_op, %struct._zend_array, i64, %struct.zend_get_gc_buffer, ptr, ptr, ptr, i64, i8, i32, ptr, ptr, i64, %struct._zend_call_stack, i64, i64, [6 x ptr] }
%struct.zend_atomic_bool_s = type { i8 }
%struct._zval_struct = type { %union._zend_value, %union.anon.3, %union.anon.6 }
%union._zend_value = type { i64 }
%union.anon.3 = type { i32 }
%union.anon.6 = type { i32 }
%struct._zend_objects_store = type { ptr, i32, i32, i32 }
%struct._HashTableIterator = type { ptr, i32, i32 }
%union._zend_function = type { %struct._zend_op_array }
%struct._zend_op_array = type { i8, [3 x i8], i32, ptr, ptr, ptr, i32, i32, ptr, ptr, ptr, ptr, i32, i32, i32, i32, ptr, ptr, ptr, ptr, ptr, i32, i32, ptr, ptr, ptr, i32, i32, i32, i32, ptr, ptr, [6 x ptr] }
%struct._zend_op = type { ptr, %union._znode_op, %union._znode_op, %union._znode_op, i32, i32, i8, i8, i8, i8 }
%union._znode_op = type { i32 }
%struct.zend_get_gc_buffer = type { ptr, ptr, ptr }
%struct._zend_call_stack = type { ptr, i64 }

@cli_shell_callbacks = hidden global %struct.cli_shell_callbacks_t zeroinitializer, align 8
@executor_globals = external global %struct._zend_executor_globals, align 8

; Function Attrs: nounwind uwtable
define internal i64 @sapi_cli_ub_write(ptr noundef %0, i64 noundef %1) #0 {
  %3 = alloca i64, align 8
  %4 = alloca ptr, align 8
  %5 = alloca i64, align 8
  %6 = alloca ptr, align 8
  %7 = alloca i64, align 8
  %8 = alloca i64, align 8
  %9 = alloca i64, align 8
  store ptr %0, ptr %4, align 8
  store i64 %1, ptr %5, align 8
  %10 = load ptr, ptr %4, align 8
  store ptr %10, ptr %6, align 8
  %11 = load i64, ptr %5, align 8
  store i64 %11, ptr %7, align 8
  %12 = load i64, ptr %5, align 8
  %13 = icmp ne i64 %12, 0
  br i1 %13, label %15, label %14

14:                                               ; preds = %2
  store i64 0, ptr %3, align 8
  br label %52

15:                                               ; preds = %2
  %16 = load ptr, ptr getelementptr inbounds (%struct.cli_shell_callbacks_t, ptr @cli_shell_callbacks, i32 0, i32 1), align 8
  %17 = icmp ne ptr %16, null
  br i1 %17, label %18, label %28

18:                                               ; preds = %15
  %19 = load ptr, ptr getelementptr inbounds (%struct.cli_shell_callbacks_t, ptr @cli_shell_callbacks, i32 0, i32 1), align 8
  %20 = load ptr, ptr %4, align 8
  %21 = load i64, ptr %5, align 8
  %22 = call i64 %19(ptr noundef %20, i64 noundef %21)
  store i64 %22, ptr %9, align 8
  %23 = load i64, ptr %9, align 8
  %24 = icmp ne i64 %23, -1
  br i1 %24, label %25, label %27

25:                                               ; preds = %18
  %26 = load i64, ptr %9, align 8
  store i64 %26, ptr %3, align 8
  br label %52

27:                                               ; preds = %18
  br label %28

28:                                               ; preds = %27, %15
  br label %29

29:                                               ; preds = %39, %28
  %30 = load i64, ptr %7, align 8
  %31 = icmp ugt i64 %30, 0
  br i1 %31, label %32, label %46

32:                                               ; preds = %29
  %33 = load ptr, ptr %6, align 8
  %34 = load i64, ptr %7, align 8
  %35 = call i64 @sapi_cli_single_write(ptr noundef %33, i64 noundef %34)
  store i64 %35, ptr %8, align 8
  %36 = load i64, ptr %8, align 8
  %37 = icmp slt i64 %36, 0
  br i1 %37, label %38, label %39

38:                                               ; preds = %32
  store i32 255, ptr getelementptr inbounds (%struct._zend_executor_globals, ptr @executor_globals, i32 0, i32 9), align 4
  call void @php_handle_aborted_connection()
  br label %46

39:                                               ; preds = %32
  %40 = load i64, ptr %8, align 8
  %41 = load ptr, ptr %6, align 8
  %42 = getelementptr inbounds i8, ptr %41, i64 %40
  store ptr %42, ptr %6, align 8
  %43 = load i64, ptr %8, align 8
  %44 = load i64, ptr %7, align 8
  %45 = sub i64 %44, %43
  store i64 %45, ptr %7, align 8
  br label %29

46:                                               ; preds = %38, %29
  %47 = load ptr, ptr %6, align 8
  %48 = load ptr, ptr %4, align 8
  %49 = ptrtoint ptr %47 to i64
  %50 = ptrtoint ptr %48 to i64
  %51 = sub i64 %49, %50
  store i64 %51, ptr %3, align 8
  br label %52

52:                                               ; preds = %46, %25, %14
  %53 = load i64, ptr %3, align 8
  ret i64 %53
}