; Function Attrs: nounwind uwtable
define internal i64 @sapi_cli_ub_write(ptr noundef %0, i64 noundef %1) #1 {
  %.not = icmp eq i64 %1, 0
  br i1 %.not, label %17, label %3

3:                                                ; preds = %2
  %4 = load ptr, ptr getelementptr inbounds (%struct.cli_shell_callbacks_t, ptr @cli_shell_callbacks, i64 0, i32 1), align 8
  %.not23 = icmp eq ptr %4, null
  br i1 %.not23, label %.preheader, label %5

5:                                                ; preds = %3
  %6 = tail call i64 %4(ptr noundef %0, i64 noundef %1) #23
  %.not24 = icmp eq i64 %6, -1
  br i1 %.not24, label %.preheader, label %17

.preheader:                                       ; preds = %5, %3
  br label %7

7:                                                ; preds = %.preheader, %11
  %.01729 = phi ptr [ %12, %11 ], [ %0, %.preheader ]
  %.01828 = phi i64 [ %13, %11 ], [ %1, %.preheader ]
  %8 = tail call i64 @sapi_cli_single_write(ptr noundef %.01729, i64 noundef %.01828)
  %9 = icmp slt i64 %8, 0
  br i1 %9, label %10, label %11

10:                                               ; preds = %7
  store i32 255, ptr getelementptr inbounds (%struct._zend_executor_globals, ptr @executor_globals, i64 0, i32 9), align 4
  tail call void @php_handle_aborted_connection() #23
  br label %.loopexit

11:                                               ; preds = %7
  %12 = getelementptr inbounds i8, ptr %.01729, i64 %8
  %13 = sub i64 %.01828, %8
  %.not25 = icmp eq i64 %13, 0
  br i1 %.not25, label %.loopexit, label %7

.loopexit:                                        ; preds = %11, %10
  %.01727 = phi ptr [ %.01729, %10 ], [ %12, %11 ]
  %14 = ptrtoint ptr %.01727 to i64
  %15 = ptrtoint ptr %0 to i64
  %16 = sub i64 %14, %15
  br label %17

17:                                               ; preds = %5, %2, %.loopexit
  %.0 = phi i64 [ %16, %.loopexit ], [ 0, %2 ], [ %6, %5 ]
  ret i64 %.0
}